(iXSConsoleState
State
p0
(dp1
S'sleepSeconds'
p2
I1800
sS'version'
p3
I9
sS'weStoppedXAPI'
p4
I00
sS'passwordChangeRequired'
p5
I00
sS'verboseBoot'
p6
I00
sS'isFirstBoot'
p7
I00
sS'authTimeoutSeconds'
p8
I300
sS'keymap'
p9
NsS'rebootMessage'
p10
NsS'modified'
p11
I00
sb.