(iXSConsoleState
State
p0
(dp1
S'sleepSeconds'
p2
I1800
sS'version'
p3
I9
sS'weStoppedXAPI'
p4
I00
sS'passwordChangeRequired'
p5
I00
sS'verboseBoot'
p6
I00
sS'isFirstBoot'
p7
I00
sS'authTimeoutSeconds'
p8
I240
sS'keymap'
p9
S'br-abnt2'
p10
sS'rebootMessage'
p11
NsS'modified'
p12
I00
sb.