(iXSConsoleState
State
p0
(dp1
S'isFirstBoot'
p2
I00
sS'sleepSeconds'
p3
I1800
sS'version'
p4
I9
sS'weStoppedXAPI'
p5
I00
sS'passwordChangeRequired'
p6
I00
sS'modified'
p7
I00
sS'verboseBoot'
p8
I00
sS'authTimeoutSeconds'
p9
I600
sS'keymap'
p10
NsS'rebootMessage'
p11
Nsb.