(iXSConsoleState
State
p0
(dp1
S'isFirstBoot'
p2
I01
sS'sleepSeconds'
p3
I1800
sS'weStoppedXAPI'
p4
I00
sS'keymap'
p5
NsS'passwordChangeRequired'
p6
I00
sS'modified'
p7
I00
sS'verboseBoot'
p8
I00
sS'authTimeoutSeconds'
p9
I300
sS'version'
p10
I9
sS'rebootMessage'
p11
Nsb.